target datalayout = "e-m:e-p270:32:32-p271:32:32-p272:64:64-i64:64-i128:128-f80:128-n8:16:32:64-S128"
target triple = "x86_64-pc-linux-gnu"

%"class.zxing::Ref" = type { ptr }
%"class.zxing::Counted" = type <{ ptr, i32, [4 x i8] }>

@_ZN2cv13wechat_qrcode9ImgSourceC1EPhiiiiiiRN5zxing12ErrorHandlerE = hidden unnamed_addr alias void (ptr, ptr, i32, i32, i32, i32, i32, i32, ptr), ptr @_ZN2cv13wechat_qrcode9ImgSourceC2EPhiiiiiiRN5zxing12ErrorHandlerE

; Function Attrs: mustprogress nounwind uwtable
define linkonce_odr hidden void @_ZN5zxing7Counted7releaseEv(ptr noundef nonnull align 8 dereferenceable(12) %0) #4 comdat align 2 {
  %2 = alloca ptr, align 8
  store ptr %0, ptr %2, align 8
  %3 = load ptr, ptr %2, align 8
  %4 = getelementptr inbounds %"class.zxing::Counted", ptr %3, i32 0, i32 1
  %5 = load i32, ptr %4, align 8
  %6 = add i32 %5, -1
  store i32 %6, ptr %4, align 8
  %7 = getelementptr inbounds %"class.zxing::Counted", ptr %3, i32 0, i32 1
  %8 = load i32, ptr %7, align 8
  %9 = icmp eq i32 %8, 0
  br i1 %9, label %10, label %18

10:                                               ; preds = %1
  %11 = getelementptr inbounds %"class.zxing::Counted", ptr %3, i32 0, i32 1
  store i32 -559026175, ptr %11, align 8
  %12 = icmp eq ptr %3, null
  br i1 %12, label %17, label %13

13:                                               ; preds = %10
  %14 = load ptr, ptr %3, align 8
  %15 = getelementptr inbounds ptr, ptr %14, i64 1
  %16 = load ptr, ptr %15, align 8
  call void %16(ptr noundef nonnull align 8 dereferenceable(12) %3) #11
  br label %17

17:                                               ; preds = %13, %10
  br label %18

18:                                               ; preds = %17, %1
  ret void
}

; Function Attrs: mustprogress nounwind uwtable
define linkonce_odr hidden noundef ptr @_ZN5zxing7Counted6retainEv(ptr noundef nonnull align 8 dereferenceable(12) %0) #4 comdat align 2 {
  %2 = alloca ptr, align 8
  store ptr %0, ptr %2, align 8
  %3 = load ptr, ptr %2, align 8
  %4 = getelementptr inbounds %"class.zxing::Counted", ptr %3, i32 0, i32 1
  %5 = load i32, ptr %4, align 8
  %6 = add i32 %5, 1
  store i32 %6, ptr %4, align 8
  ret ptr %3
}

; Function Attrs: mustprogress uwtable
define linkonce_odr hidden void @_ZN5zxing3RefIN2cv13wechat_qrcode9ImgSourceEE5resetEPS3_(ptr noundef nonnull align 8 dereferenceable(8) %0, ptr noundef %1) #0 comdat align 2 {
  %3 = alloca ptr, align 8
  %4 = alloca ptr, align 8
  store ptr %0, ptr %3, align 8
  store ptr %1, ptr %4, align 8
  %5 = load ptr, ptr %3, align 8
  %6 = load ptr, ptr %4, align 8
  %7 = icmp ne ptr %6, null
  br i1 %7, label %8, label %11

8:                                                ; preds = %2
  %9 = load ptr, ptr %4, align 8
  %10 = call noundef ptr @_ZN5zxing7Counted6retainEv(ptr noundef nonnull align 8 dereferenceable(12) %9)
  br label %11

11:                                               ; preds = %8, %2
  %12 = getelementptr inbounds %"class.zxing::Ref", ptr %5, i32 0, i32 0
  %13 = load ptr, ptr %12, align 8
  %14 = icmp ne ptr %13, null
  br i1 %14, label %15, label %18

15:                                               ; preds = %11
  %16 = getelementptr inbounds %"class.zxing::Ref", ptr %5, i32 0, i32 0
  %17 = load ptr, ptr %16, align 8
  call void @_ZN5zxing7Counted7releaseEv(ptr noundef nonnull align 8 dereferenceable(12) %17)
  br label %18

18:                                               ; preds = %15, %11
  %19 = load ptr, ptr %4, align 8
  %20 = getelementptr inbounds %"class.zxing::Ref", ptr %5, i32 0, i32 0
  store ptr %19, ptr %20, align 8
  ret void
}

; Function Attrs: mustprogress uwtable
define linkonce_odr hidden void @_ZN5zxing3RefIN2cv13wechat_qrcode9ImgSourceEEC2EPS3_(ptr noundef nonnull align 8 dereferenceable(8) %0, ptr noundef %1) unnamed_addr #0 comdat align 2 {
  %3 = alloca ptr, align 8
  %4 = alloca ptr, align 8
  store ptr %0, ptr %3, align 8
  store ptr %1, ptr %4, align 8
  %5 = load ptr, ptr %3, align 8
  %6 = getelementptr inbounds %"class.zxing::Ref", ptr %5, i32 0, i32 0
  store ptr null, ptr %6, align 8
  %7 = load ptr, ptr %4, align 8
  call void @_ZN5zxing3RefIN2cv13wechat_qrcode9ImgSourceEE5resetEPS3_(ptr noundef nonnull align 8 dereferenceable(8) %5, ptr noundef %7)
  ret void
}

; Function Attrs: mustprogress uwtable
define hidden void @_ZN2cv13wechat_qrcode9ImgSource6createEPhiiiiiiRN5zxing12ErrorHandlerE(ptr dead_on_unwind noalias writable sret(%"class.zxing::Ref") align 8 %0, ptr noundef %1, i32 noundef %2, i32 noundef %3, i32 noundef %4, i32 noundef %5, i32 noundef %6, i32 noundef %7, ptr noundef nonnull align 8 dereferenceable(48) %8) #0 align 2 personality ptr @__gxx_personality_v0 {
  %10 = alloca ptr, align 8
  %11 = alloca ptr, align 8
  %12 = alloca i32, align 4
  %13 = alloca i32, align 4
  %14 = alloca i32, align 4
  %15 = alloca i32, align 4
  %16 = alloca i32, align 4
  %17 = alloca i32, align 4
  %18 = alloca ptr, align 8
  %19 = alloca ptr, align 8
  %20 = alloca i32, align 4
  store ptr %0, ptr %10, align 8
  store ptr %1, ptr %11, align 8
  store i32 %2, ptr %12, align 4
  store i32 %3, ptr %13, align 4
  store i32 %4, ptr %14, align 4
  store i32 %5, ptr %15, align 4
  store i32 %6, ptr %16, align 4
  store i32 %7, ptr %17, align 4
  store ptr %8, ptr %18, align 8
  %21 = call noalias noundef nonnull ptr @_Znwm(i64 noundef 80) #10
  %22 = load ptr, ptr %11, align 8
  %23 = load i32, ptr %12, align 4
  %24 = load i32, ptr %13, align 4
  %25 = load i32, ptr %14, align 4
  %26 = load i32, ptr %15, align 4
  %27 = load i32, ptr %16, align 4
  %28 = load i32, ptr %17, align 4
  %29 = load ptr, ptr %18, align 8
  invoke void @_ZN2cv13wechat_qrcode9ImgSourceC1EPhiiiiiiRN5zxing12ErrorHandlerE(ptr noundef nonnull align 8 dereferenceable(80) %21, ptr noundef %22, i32 noundef %23, i32 noundef %24, i32 noundef %25, i32 noundef %26, i32 noundef %27, i32 noundef %28, ptr noundef nonnull align 8 dereferenceable(48) %29)
          to label %30 unwind label %31

30:                                               ; preds = %9
  call void @_ZN5zxing3RefIN2cv13wechat_qrcode9ImgSourceEEC2EPS3_(ptr noundef nonnull align 8 dereferenceable(8) %0, ptr noundef %21)
  ret void

31:                                               ; preds = %9
  %32 = landingpad { ptr, i32 }
          cleanup
  %33 = extractvalue { ptr, i32 } %32, 0
  store ptr %33, ptr %19, align 8
  %34 = extractvalue { ptr, i32 } %32, 1
  store i32 %34, ptr %20, align 4
  call void @_ZdlPv(ptr noundef %21) #13
  br label %35

35:                                               ; preds = %31
  %36 = load ptr, ptr %19, align 8
  %37 = load i32, ptr %20, align 4
  %38 = insertvalue { ptr, i32 } poison, ptr %36, 0
  %39 = insertvalue { ptr, i32 } %38, i32 %37, 1
  resume { ptr, i32 } %39
}