; Function Attrs: mustprogress uwtable
define hidden void @_ZN2cv13wechat_qrcode9ImgSource6createEPhiiiiiiRN5zxing12ErrorHandlerE(ptr dead_on_unwind noalias writable writeonly sret(%"class.zxing::Ref") align 8 captures(none) %0, ptr noundef %1, i32 noundef %2, i32 noundef %3, i32 noundef %4, i32 noundef %5, i32 noundef %6, i32 noundef %7, ptr noundef nonnull align 8 dereferenceable(48) %8) local_unnamed_addr #0 align 2 personality ptr @__gxx_personality_v0 {
  %10 = tail call noalias noundef nonnull dereferenceable(80) ptr @_Znwm(i64 noundef 80) #14
  invoke void @_ZN2cv13wechat_qrcode9ImgSourceC2EPhiiiiiiRN5zxing12ErrorHandlerE(ptr noundef nonnull align 8 dereferenceable(80) %10, ptr noundef %1, i32 noundef %2, i32 noundef %3, i32 noundef %4, i32 noundef %5, i32 noundef %6, i32 noundef %7, ptr noundef nonnull align 8 dereferenceable(48) %8)
          to label %_ZN5zxing3RefIN2cv13wechat_qrcode9ImgSourceEEC2EPS3_.exit unwind label %14

_ZN5zxing3RefIN2cv13wechat_qrcode9ImgSourceEEC2EPS3_.exit: ; preds = %9
  %11 = getelementptr inbounds nuw i8, ptr %10, i64 8
  %12 = load i32, ptr %11, align 8
  %13 = add i32 %12, 1
  store i32 %13, ptr %11, align 8
  store ptr %10, ptr %0, align 8
  ret void

14:                                               ; preds = %9
  %15 = landingpad { ptr, i32 }
          cleanup
  tail call void @_ZdlPv(ptr noundef nonnull %10) #16
  resume { ptr, i32 } %15
}